target datalayout = "e-m:e-p270:32:32-p271:32:32-p272:64:64-i64:64-i128:128-f80:128-n8:16:32:64-S128"
target triple = "x86_64-pc-linux-gnu"

%struct.slurm_conf_t = type { i64, ptr, i16, ptr, ptr, ptr, ptr, ptr, i16, ptr, ptr, ptr, ptr, ptr, ptr, ptr, i16, ptr, ptr, ptr, ptr, i16, ptr, ptr, ptr, i64, ptr, ptr, ptr, ptr, i16, ptr, ptr, i16, i32, ptr, i32, ptr, i32, i32, ptr, ptr, i64, i64, ptr, i16, i16, ptr, i32, i32, ptr, i32, ptr, i32, i16, i16, i16, ptr, i16, i16, ptr, ptr, i32, i16, i16, ptr, i32, i16, ptr, ptr, ptr, ptr, i16, ptr, ptr, ptr, ptr, i32, ptr, ptr, ptr, ptr, i16, i16, ptr, i32, i32, i32, i16, i16, ptr, ptr, i16, ptr, ptr, i32, i32, i32, i32, i32, i64, i32, i32, i16, ptr, ptr, i32, ptr, ptr, ptr, i16, i32, ptr, ptr, i16, ptr, ptr, i32, i16, ptr, ptr, ptr, ptr, i32, i32, i16, i16, i32, ptr, i16, ptr, i32, i32, i32, i32, i32, i32, ptr, i16, ptr, ptr, i32, i16, ptr, i32, i16, i16, ptr, ptr, ptr, i16, ptr, ptr, ptr, ptr, i16, i16, ptr, i16, ptr, i16, ptr, i16, ptr, i16, ptr, ptr, ptr, ptr, i16, ptr, ptr, ptr, i32, ptr, i32, ptr, ptr, i16, ptr, ptr, i32, i16, ptr, ptr, i16, i16, ptr, i16, ptr, ptr, ptr, i32, ptr, i16, i16, ptr, ptr, ptr, ptr, ptr, ptr, ptr, ptr, i16, i32, i16, ptr, ptr, ptr, ptr, i32, ptr, ptr, ptr, i16, ptr, ptr, ptr, i16, ptr, i16, ptr, i16, i16, ptr }
%struct.persist_conn_t = type { ptr, i32, i32, i8, ptr, ptr, ptr, i64, i16, i32, i16, i8, i32, i32, ptr, i16, ptr, i64, i32, ptr, %struct.slurm_trigger_callbacks_t, i16 }
%struct.slurm_trigger_callbacks_t = type { ptr, ptr, ptr, ptr, ptr }
%struct.persist_msg_t = type { ptr, ptr, i16 }
%struct.rc_msg_t = type { ptr, i32 }
%struct.persist_rc_msg_t = type { ptr, i16, i32, i16 }
%struct.dbd_id_rc_msg = type { i32, i64, i64, i32 }

@slurmdbd_conn = dso_local global ptr null, align 8
@slurm_conf = external global %struct.slurm_conf_t, align 8
@plugin_type = external constant [0 x i8], align 1
@.str.35 = private unnamed_addr constant [21 x i8] c"unpack message error\00", align 1
@.str.36 = private unnamed_addr constant [33 x i8] c"PERSIST_RC is %d from %s(%u): %s\00", align 1
@.str.37 = private unnamed_addr constant [106 x i8] c"You need to add this cluster to accounting if you want to enforce associations, or no jobs will ever run.\00", align 1
@.str.38 = private unnamed_addr constant [41 x i8] c"%s: %s: PERSIST_RC is %d from %s(%u): %s\00", align 1
@.str.39 = private unnamed_addr constant [34 x i8] c"bad message type %s != PERSIST_RC\00", align 1
@.str.41 = private unnamed_addr constant [74 x i8] c"%s: %s: PROTOCOL: msg_type:DBD_ID_RC return_code:%s JobId=%u db_index=%lu\00", align 1
@__func__._unpack_return_code = private unnamed_addr constant [20 x i8] c"_unpack_return_code\00", align 1
@.str.42 = private unnamed_addr constant [16 x i8] c"DBD_ID_RC is %d\00", align 1
@.str.43 = private unnamed_addr constant [87 x i8] c"%s: %s: PROTOCOL: msg_type:PERSIST_RC return_code:%s ret_info:%hu flags=%#x comment:%s\00", align 1

; Function Attrs: nounwind uwtable
define internal zeroext i1 @_add_sending_script_env(ptr noundef %0, ptr noundef %1) #0 {
  %3 = alloca i1, align 1
  %4 = alloca ptr, align 8
  %5 = alloca ptr, align 8
  store ptr %0, ptr %4, align 8
  store ptr %1, ptr %5, align 8
  %6 = load ptr, ptr %4, align 8
  %7 = getelementptr inbounds nuw %struct.dbd_id_rc_msg, ptr %6, i32 0, i32 2
  %8 = load i64, ptr %7, align 8
  %9 = and i64 %8, 34359738432
  %10 = icmp ne i64 %9, 0
  br i1 %10, label %12, label %11

11:                                               ; preds = %2
  store i1 false, ptr %3, align 1
  br label %26

12:                                               ; preds = %2
  %13 = load ptr, ptr %5, align 8
  %14 = getelementptr inbounds nuw %struct.rc_msg_t, ptr %13, i32 0, i32 0
  %15 = load ptr, ptr %14, align 8
  %16 = icmp ne ptr %15, null
  br i1 %16, label %21, label %17

17:                                               ; preds = %12
  %18 = call ptr @slurm_list_create(ptr noundef @slurm_slurmdbd_free_id_rc_msg)
  %19 = load ptr, ptr %5, align 8
  %20 = getelementptr inbounds nuw %struct.rc_msg_t, ptr %19, i32 0, i32 0
  store ptr %18, ptr %20, align 8
  br label %21

21:                                               ; preds = %17, %12
  %22 = load ptr, ptr %5, align 8
  %23 = getelementptr inbounds nuw %struct.rc_msg_t, ptr %22, i32 0, i32 0
  %24 = load ptr, ptr %23, align 8
  %25 = load ptr, ptr %4, align 8
  call void @slurm_list_append(ptr noundef %24, ptr noundef %25)
  store i1 true, ptr %3, align 1
  br label %26

26:                                               ; preds = %21, %11
  %27 = load i1, ptr %3, align 1
  ret i1 %27
}

; Function Attrs: nounwind uwtable
define internal i32 @_unpack_return_code(i16 noundef zeroext %0, ptr noundef %1, ptr noundef %2) #0 {
  %4 = alloca i32, align 4
  %5 = alloca i16, align 2
  %6 = alloca ptr, align 8
  %7 = alloca ptr, align 8
  %8 = alloca i16, align 2
  %9 = alloca ptr, align 8
  %10 = alloca ptr, align 8
  %11 = alloca %struct.persist_msg_t, align 8
  %12 = alloca i32, align 4
  %13 = alloca i32, align 4
  store i16 %0, ptr %5, align 2
  store ptr %1, ptr %6, align 8
  store ptr %2, ptr %7, align 8
  call void @llvm.lifetime.start.p0(i64 2, ptr %8) #9
  store i16 -1, ptr %8, align 2
  call void @llvm.lifetime.start.p0(i64 8, ptr %9) #9
  call void @llvm.lifetime.start.p0(i64 8, ptr %10) #9
  call void @llvm.lifetime.start.p0(i64 24, ptr %11) #9
  call void @llvm.lifetime.start.p0(i64 4, ptr %12) #9
  store i32 -1, ptr %12, align 4
  call void @llvm.memset.p0.i64(ptr align 8 %11, i8 0, i64 24, i1 false)
  %14 = load ptr, ptr @slurmdbd_conn, align 8
  %15 = getelementptr inbounds nuw %struct.persist_conn_t, ptr %14, i32 0, i32 21
  %16 = load i16, ptr %15, align 8
  %17 = load ptr, ptr %6, align 8
  %18 = call i32 @slurm_unpack_slurmdbd_msg(ptr noundef %11, i16 noundef zeroext %16, ptr noundef %17)
  store i32 %18, ptr %12, align 4
  %19 = icmp ne i32 %18, 0
  br i1 %19, label %20, label %23

20:                                               ; preds = %3
  %21 = call i32 (ptr, ...) @slurm_error(ptr noundef @.str.35)
  %22 = load i32, ptr %12, align 4
  store i32 %22, ptr %4, align 4
  store i32 1, ptr %13, align 4
  br label %163

23:                                               ; preds = %3
  %24 = getelementptr inbounds nuw %struct.persist_msg_t, ptr %11, i32 0, i32 2
  %25 = load i16, ptr %24, align 8
  %26 = zext i16 %25 to i32
  switch i32 %26, label %156 [
    i32 1426, label %27
    i32 1433, label %68
  ]

27:                                               ; preds = %23
  %28 = getelementptr inbounds nuw %struct.persist_msg_t, ptr %11, i32 0, i32 1
  %29 = load ptr, ptr %28, align 8
  store ptr %29, ptr %10, align 8
  %30 = load ptr, ptr %10, align 8
  %31 = getelementptr inbounds nuw %struct.dbd_id_rc_msg, ptr %30, i32 0, i32 3
  %32 = load i32, ptr %31, align 8
  store i32 %32, ptr %12, align 4
  br label %33

33:                                               ; preds = %27
  %34 = load i64, ptr getelementptr inbounds nuw (%struct.slurm_conf_t, ptr @slurm_conf, i32 0, i32 42), align 8
  %35 = and i64 %34, 67108864
  %36 = icmp ne i64 %35, 0
  br i1 %36, label %37, label %53

37:                                               ; preds = %33
  br label %38

38:                                               ; preds = %37
  %39 = call i32 @slurm_get_log_level()
  %40 = icmp sge i32 %39, 4
  br i1 %40, label %41, label %50

41:                                               ; preds = %38
  %42 = load i32, ptr %12, align 4
  %43 = call ptr @slurm_strerror(i32 noundef %42)
  %44 = load ptr, ptr %10, align 8
  %45 = getelementptr inbounds nuw %struct.dbd_id_rc_msg, ptr %44, i32 0, i32 0
  %46 = load i32, ptr %45, align 8
  %47 = load ptr, ptr %10, align 8
  %48 = getelementptr inbounds nuw %struct.dbd_id_rc_msg, ptr %47, i32 0, i32 1
  %49 = load i64, ptr %48, align 8
  call void (i32, ptr, ...) @slurm_log_var(i32 noundef 4, ptr noundef @.str.41, ptr noundef @plugin_type, ptr noundef @__func__._unpack_return_code, ptr noundef %43, i32 noundef %46, i64 noundef %49)
  br label %50

50:                                               ; preds = %41, %38
  br label %51

51:                                               ; preds = %50
  br label %52

52:                                               ; preds = %51
  br label %53

53:                                               ; preds = %52, %33
  br label %54

54:                                               ; preds = %53
  br label %55

55:                                               ; preds = %54
  %56 = load ptr, ptr %10, align 8
  %57 = load ptr, ptr %7, align 8
  %58 = call zeroext i1 @_add_sending_script_env(ptr noundef %56, ptr noundef %57)
  br i1 %58, label %61, label %59

59:                                               ; preds = %55
  %60 = load ptr, ptr %10, align 8
  call void @slurm_slurmdbd_free_id_rc_msg(ptr noundef %60)
  br label %61

61:                                               ; preds = %59, %55
  %62 = load i32, ptr %12, align 4
  %63 = icmp ne i32 %62, 0
  br i1 %63, label %64, label %67

64:                                               ; preds = %61
  %65 = load i32, ptr %12, align 4
  %66 = call i32 (ptr, ...) @slurm_error(ptr noundef @.str.42, i32 noundef %65)
  br label %67

67:                                               ; preds = %64, %61
  br label %161

68:                                               ; preds = %23
  %69 = getelementptr inbounds nuw %struct.persist_msg_t, ptr %11, i32 0, i32 1
  %70 = load ptr, ptr %69, align 8
  store ptr %70, ptr %9, align 8
  %71 = load ptr, ptr %9, align 8
  %72 = getelementptr inbounds nuw %struct.persist_rc_msg_t, ptr %71, i32 0, i32 2
  %73 = load i32, ptr %72, align 4
  store i32 %73, ptr %12, align 4
  br label %74

74:                                               ; preds = %68
  %75 = load i64, ptr getelementptr inbounds nuw (%struct.slurm_conf_t, ptr @slurm_conf, i32 0, i32 42), align 8
  %76 = and i64 %75, 67108864
  %77 = icmp ne i64 %76, 0
  br i1 %77, label %78, label %99

78:                                               ; preds = %74
  br label %79

79:                                               ; preds = %78
  %80 = call i32 @slurm_get_log_level()
  %81 = icmp sge i32 %80, 4
  br i1 %81, label %82, label %96

82:                                               ; preds = %79
  %83 = load i32, ptr %12, align 4
  %84 = call ptr @slurm_strerror(i32 noundef %83)
  %85 = load ptr, ptr %9, align 8
  %86 = getelementptr inbounds nuw %struct.persist_rc_msg_t, ptr %85, i32 0, i32 3
  %87 = load i16, ptr %86, align 8
  %88 = zext i16 %87 to i32
  %89 = load ptr, ptr %9, align 8
  %90 = getelementptr inbounds nuw %struct.persist_rc_msg_t, ptr %89, i32 0, i32 1
  %91 = load i16, ptr %90, align 8
  %92 = zext i16 %91 to i32
  %93 = load ptr, ptr %9, align 8
  %94 = getelementptr inbounds nuw %struct.persist_rc_msg_t, ptr %93, i32 0, i32 0
  %95 = load ptr, ptr %94, align 8
  call void (i32, ptr, ...) @slurm_log_var(i32 noundef 4, ptr noundef @.str.43, ptr noundef @plugin_type, ptr noundef @__func__._unpack_return_code, ptr noundef %84, i32 noundef %88, i32 noundef %92, ptr noundef %95)
  br label %96

96:                                               ; preds = %82, %79
  br label %97

97:                                               ; preds = %96
  br label %98

98:                                               ; preds = %97
  br label %99

99:                                               ; preds = %98, %74
  br label %100

100:                                              ; preds = %99
  br label %101

101:                                              ; preds = %100
  %102 = load i32, ptr %12, align 4
  %103 = icmp ne i32 %102, 0
  br i1 %103, label %104, label %154

104:                                              ; preds = %101
  %105 = load ptr, ptr %9, align 8
  %106 = getelementptr inbounds nuw %struct.persist_rc_msg_t, ptr %105, i32 0, i32 3
  %107 = load i16, ptr %106, align 8
  %108 = zext i16 %107 to i32
  %109 = icmp eq i32 %108, 1434
  br i1 %109, label %110, label %129

110:                                              ; preds = %104
  %111 = load i16, ptr getelementptr inbounds nuw (%struct.slurm_conf_t, ptr @slurm_conf, i32 0, i32 2), align 8
  %112 = zext i16 %111 to i32
  %113 = icmp ne i32 %112, 0
  br i1 %113, label %114, label %129

114:                                              ; preds = %110
  %115 = load i32, ptr %12, align 4
  %116 = load ptr, ptr %9, align 8
  %117 = getelementptr inbounds nuw %struct.persist_rc_msg_t, ptr %116, i32 0, i32 3
  %118 = load i16, ptr %117, align 8
  %119 = zext i16 %118 to i32
  %120 = call ptr @slurmdbd_msg_type_2_str(i32 noundef %119, i32 noundef 1)
  %121 = load ptr, ptr %9, align 8
  %122 = getelementptr inbounds nuw %struct.persist_rc_msg_t, ptr %121, i32 0, i32 3
  %123 = load i16, ptr %122, align 8
  %124 = zext i16 %123 to i32
  %125 = load ptr, ptr %9, align 8
  %126 = getelementptr inbounds nuw %struct.persist_rc_msg_t, ptr %125, i32 0, i32 0
  %127 = load ptr, ptr %126, align 8
  %128 = call i32 (ptr, ...) @slurm_error(ptr noundef @.str.36, i32 noundef %115, ptr noundef %120, i32 noundef %124, ptr noundef %127)
  call void (ptr, ...) @slurm_fatal(ptr noundef @.str.37) #11
  unreachable

129:                                              ; preds = %110, %104
  br label %130

130:                                              ; preds = %129
  br label %131

131:                                              ; preds = %130
  %132 = call i32 @slurm_get_log_level()
  %133 = icmp sge i32 %132, 5
  br i1 %133, label %134, label %148

134:                                              ; preds = %131
  %135 = load i32, ptr %12, align 4
  %136 = load ptr, ptr %9, align 8
  %137 = getelementptr inbounds nuw %struct.persist_rc_msg_t, ptr %136, i32 0, i32 3
  %138 = load i16, ptr %137, align 8
  %139 = zext i16 %138 to i32
  %140 = call ptr @slurmdbd_msg_type_2_str(i32 noundef %139, i32 noundef 1)
  %141 = load ptr, ptr %9, align 8
  %142 = getelementptr inbounds nuw %struct.persist_rc_msg_t, ptr %141, i32 0, i32 3
  %143 = load i16, ptr %142, align 8
  %144 = zext i16 %143 to i32
  %145 = load ptr, ptr %9, align 8
  %146 = getelementptr inbounds nuw %struct.persist_rc_msg_t, ptr %145, i32 0, i32 0
  %147 = load ptr, ptr %146, align 8
  call void (i32, ptr, ...) @slurm_log_var(i32 noundef 5, ptr noundef @.str.38, ptr noundef @plugin_type, ptr noundef @__func__._unpack_return_code, i32 noundef %135, ptr noundef %140, i32 noundef %144, ptr noundef %147)
  br label %148

148:                                              ; preds = %134, %131
  br label %149

149:                                              ; preds = %148
  br label %150

150:                                              ; preds = %149
  br label %151

151:                                              ; preds = %150
  br label %152

152:                                              ; preds = %151
  br label %153

153:                                              ; preds = %152
  br label %154

154:                                              ; preds = %153, %101
  %155 = load ptr, ptr %9, align 8
  call void @slurm_persist_free_rc_msg(ptr noundef %155)
  br label %161

156:                                              ; preds = %23
  %157 = load i16, ptr %8, align 2
  %158 = zext i16 %157 to i32
  %159 = call ptr @slurmdbd_msg_type_2_str(i32 noundef %158, i32 noundef 1)
  %160 = call i32 (ptr, ...) @slurm_error(ptr noundef @.str.39, ptr noundef %159)
  br label %161

161:                                              ; preds = %156, %154, %67
  %162 = load i32, ptr %12, align 4
  store i32 %162, ptr %4, align 4
  store i32 1, ptr %13, align 4
  br label %163

163:                                              ; preds = %161, %20
  call void @llvm.lifetime.end.p0(i64 4, ptr %12) #9
  call void @llvm.lifetime.end.p0(i64 24, ptr %11) #9
  call void @llvm.lifetime.end.p0(i64 8, ptr %10) #9
  call void @llvm.lifetime.end.p0(i64 8, ptr %9) #9
  call void @llvm.lifetime.end.p0(i64 2, ptr %8) #9
  %164 = load i32, ptr %4, align 4
  ret i32 %164
}