; Function Attrs: nounwind uwtable
define internal fastcc i32 @_unpack_return_code(ptr noundef %0, ptr noundef captures(none) %1) unnamed_addr #0 {
  %3 = alloca %struct.persist_msg_t, align 8
  call void @llvm.lifetime.start.p0(i64 24, ptr nonnull %3) #13
  call void @llvm.memset.p0.i64(ptr noundef nonnull align 8 dereferenceable(24) %3, i8 0, i64 24, i1 false)
  %4 = load ptr, ptr @slurmdbd_conn, align 8
  %5 = getelementptr inbounds nuw i8, ptr %4, i64 168
  %6 = load i16, ptr %5, align 8
  %7 = call i32 @slurm_unpack_slurmdbd_msg(ptr noundef nonnull %3, i16 noundef zeroext %6, ptr noundef %0) #13
  %.not = icmp eq i32 %7, 0
  br i1 %.not, label %10, label %8

8:                                                ; preds = %2
  %9 = call i32 (ptr, ...) @slurm_error(ptr noundef nonnull @.str.35) #13
  br label %86

10:                                               ; preds = %2
  %11 = getelementptr inbounds nuw i8, ptr %3, i64 16
  %12 = load i16, ptr %11, align 8
  switch i16 %12, label %83 [
    i16 1426, label %13
    i16 1433, label %40
  ]

13:                                               ; preds = %10
  %14 = getelementptr inbounds nuw i8, ptr %3, i64 8
  %15 = load ptr, ptr %14, align 8
  %16 = getelementptr inbounds nuw i8, ptr %15, i64 24
  %17 = load i32, ptr %16, align 8
  %18 = load i64, ptr getelementptr inbounds nuw (i8, ptr @slurm_conf, i64 320), align 8
  %19 = and i64 %18, 67108864
  %.not39 = icmp eq i64 %19, 0
  br i1 %.not39, label %28, label %20

20:                                               ; preds = %13
  %21 = call i32 @slurm_get_log_level() #13
  %22 = icmp sgt i32 %21, 3
  br i1 %22, label %23, label %28

23:                                               ; preds = %20
  %24 = call ptr @slurm_strerror(i32 noundef %17) #13
  %25 = load i32, ptr %15, align 8
  %26 = getelementptr inbounds nuw i8, ptr %15, i64 8
  %27 = load i64, ptr %26, align 8
  call void (i32, ptr, ...) @slurm_log_var(i32 noundef 4, ptr noundef nonnull @.str.41, ptr noundef nonnull @plugin_type, ptr noundef nonnull @__func__._unpack_return_code, ptr noundef %24, i32 noundef %25, i64 noundef %27) #13
  br label %28

28:                                               ; preds = %20, %23, %13
  %29 = getelementptr inbounds nuw i8, ptr %15, i64 16
  %30 = load i64, ptr %29, align 8
  %31 = and i64 %30, 34359738432
  %.not.i.not = icmp eq i64 %31, 0
  br i1 %.not.i.not, label %_add_sending_script_env.exit, label %32

32:                                               ; preds = %28
  %33 = load ptr, ptr %1, align 8
  %.not6.i = icmp eq ptr %33, null
  br i1 %.not6.i, label %34, label %_add_sending_script_env.exit.thread

34:                                               ; preds = %32
  %35 = call ptr @slurm_list_create(ptr noundef nonnull @slurm_slurmdbd_free_id_rc_msg) #13
  store ptr %35, ptr %1, align 8
  br label %_add_sending_script_env.exit.thread

_add_sending_script_env.exit.thread:              ; preds = %32, %34
  %36 = phi ptr [ %35, %34 ], [ %33, %32 ]
  call void @slurm_list_append(ptr noundef %36, ptr noundef nonnull %15) #13
  br label %37

_add_sending_script_env.exit:                     ; preds = %28
  call void @slurm_slurmdbd_free_id_rc_msg(ptr noundef nonnull %15) #13
  br label %37

37:                                               ; preds = %_add_sending_script_env.exit.thread, %_add_sending_script_env.exit
  %.not40 = icmp eq i32 %17, 0
  br i1 %.not40, label %86, label %38

38:                                               ; preds = %37
  %39 = call i32 (ptr, ...) @slurm_error(ptr noundef nonnull @.str.42, i32 noundef %17) #13
  br label %86

40:                                               ; preds = %10
  %41 = getelementptr inbounds nuw i8, ptr %3, i64 8
  %42 = load ptr, ptr %41, align 8
  %43 = getelementptr inbounds nuw i8, ptr %42, i64 12
  %44 = load i32, ptr %43, align 4
  %45 = load i64, ptr getelementptr inbounds nuw (i8, ptr @slurm_conf, i64 320), align 8
  %46 = and i64 %45, 67108864
  %.not37 = icmp eq i64 %46, 0
  br i1 %.not37, label %59, label %47

47:                                               ; preds = %40
  %48 = call i32 @slurm_get_log_level() #13
  %49 = icmp sgt i32 %48, 3
  br i1 %49, label %50, label %59

50:                                               ; preds = %47
  %51 = call ptr @slurm_strerror(i32 noundef %44) #13
  %52 = getelementptr inbounds nuw i8, ptr %42, i64 16
  %53 = load i16, ptr %52, align 8
  %54 = zext i16 %53 to i32
  %55 = getelementptr inbounds nuw i8, ptr %42, i64 8
  %56 = load i16, ptr %55, align 8
  %57 = zext i16 %56 to i32
  %58 = load ptr, ptr %42, align 8
  call void (i32, ptr, ...) @slurm_log_var(i32 noundef 4, ptr noundef nonnull @.str.43, ptr noundef nonnull @plugin_type, ptr noundef nonnull @__func__._unpack_return_code, ptr noundef %51, i32 noundef %54, i32 noundef %57, ptr noundef %58) #13
  br label %59

59:                                               ; preds = %47, %50, %40
  %.not38 = icmp eq i32 %44, 0
  br i1 %.not38, label %82, label %60

60:                                               ; preds = %59
  %61 = getelementptr inbounds nuw i8, ptr %42, i64 16
  %62 = load i16, ptr %61, align 8
  %63 = icmp eq i16 %62, 1434
  %64 = load i16, ptr getelementptr inbounds nuw (i8, ptr @slurm_conf, i64 16), align 8
  %65 = icmp ne i16 %64, 0
  %or.cond = select i1 %63, i1 %65, i1 false
  br i1 %or.cond, label %66, label %72

66:                                               ; preds = %60
  %67 = call ptr @slurmdbd_msg_type_2_str(i32 noundef 1434, i32 noundef 1) #13
  %68 = load i16, ptr %61, align 8
  %69 = zext i16 %68 to i32
  %70 = load ptr, ptr %42, align 8
  %71 = call i32 (ptr, ...) @slurm_error(ptr noundef nonnull @.str.36, i32 noundef %44, ptr noundef %67, i32 noundef %69, ptr noundef %70) #13
  call void (ptr, ...) @slurm_fatal(ptr noundef nonnull @.str.37) #15
  unreachable

72:                                               ; preds = %60
  %73 = call i32 @slurm_get_log_level() #13
  %74 = icmp sgt i32 %73, 4
  br i1 %74, label %75, label %82

75:                                               ; preds = %72
  %76 = load i16, ptr %61, align 8
  %77 = zext i16 %76 to i32
  %78 = call ptr @slurmdbd_msg_type_2_str(i32 noundef %77, i32 noundef 1) #13
  %79 = load i16, ptr %61, align 8
  %80 = zext i16 %79 to i32
  %81 = load ptr, ptr %42, align 8
  call void (i32, ptr, ...) @slurm_log_var(i32 noundef 5, ptr noundef nonnull @.str.38, ptr noundef nonnull @plugin_type, ptr noundef nonnull @__func__._unpack_return_code, i32 noundef %44, ptr noundef %78, i32 noundef %80, ptr noundef %81) #13
  br label %82

82:                                               ; preds = %75, %72, %59
  call void @slurm_persist_free_rc_msg(ptr noundef nonnull %42) #13
  br label %86

83:                                               ; preds = %10
  %84 = call ptr @slurmdbd_msg_type_2_str(i32 noundef 65535, i32 noundef 1) #13
  %85 = call i32 (ptr, ...) @slurm_error(ptr noundef nonnull @.str.39, ptr noundef %84) #13
  br label %86

86:                                               ; preds = %82, %83, %38, %37, %8
  %.031 = phi i32 [ %7, %8 ], [ 0, %83 ], [ %44, %82 ], [ %17, %38 ], [ 0, %37 ]
  call void @llvm.lifetime.end.p0(i64 24, ptr nonnull %3) #13
  ret i32 %.031
}